#include <math.h>
#include <stdio.h>
#include <stdlib.h>
#include <string.h>

double aver(double *p,int n)
{
	int i;
	double a;
	double sum=0;
	for(i=0;i<n;i++)
		sum=*(p+i)+sum;
	a=sum/n;
	return a;
}
double s(double *p,int n)
{
	int i;
	double sum=0;
	double av=aver(p,n);
	for(i=0;i<n;i++)
		sum=(*(p+i)-av)*(*(p+i)-av)+sum;
	double a;
	a=sum/n;
	return(sqrt(a));
}
	

void main()
{
	double *p[100];
	int m,n,i,j;
	scanf("%d",&m);
	for(i=0;i<m;i++)
		*(p+i)=(double *)malloc(100*sizeof(double));
	for(i=0;i<m;i++)
	{
		scanf("%d",&n);
		for(j=0;j<n;j++)
		    scanf("%lf",*(p+i)+j);

		printf("%.5lf\n",s(p[i],n));
		
	}
}