target datalayout = "e-m:e-p270:32:32-p271:32:32-p272:64:64-i64:64-f80:128-n8:16:32:64-S128"
target triple = "x86_64-pc-linux-gnu"

@.str = private unnamed_addr constant [3 x i8] c"%d\00", align 1
@.str.1 = private unnamed_addr constant [4 x i8] c"%lf\00", align 1
@.str.2 = private unnamed_addr constant [7 x i8] c"%.5lf\0A\00", align 1

; Function Attrs: noinline nounwind uwtable
define dso_local double @aver(double* %0, i32 %1) #0 {
  %3 = alloca double*, align 8
  %4 = alloca i32, align 4
  %5 = alloca i32, align 4
  %6 = alloca double, align 8
  %7 = alloca double, align 8
  store double* %0, double** %3, align 8
  store i32 %1, i32* %4, align 4
  store double 0.000000e+00, double* %7, align 8
  store i32 0, i32* %5, align 4
  br label %8

8:                                                ; preds = %20, %2
  %9 = load i32, i32* %5, align 4
  %10 = load i32, i32* %4, align 4
  %11 = icmp slt i32 %9, %10
  br i1 %11, label %12, label %23

12:                                               ; preds = %8
  %13 = load double*, double** %3, align 8
  %14 = load i32, i32* %5, align 4
  %15 = sext i32 %14 to i64
  %16 = getelementptr inbounds double, double* %13, i64 %15
  %17 = load double, double* %16, align 8
  %18 = load double, double* %7, align 8
  %19 = fadd double %17, %18
  store double %19, double* %7, align 8
  br label %20

20:                                               ; preds = %12
  %21 = load i32, i32* %5, align 4
  %22 = add nsw i32 %21, 1
  store i32 %22, i32* %5, align 4
  br label %8

23:                                               ; preds = %8
  %24 = load double, double* %7, align 8
  %25 = load i32, i32* %4, align 4
  %26 = sitofp i32 %25 to double
  %27 = fdiv double %24, %26
  store double %27, double* %6, align 8
  %28 = load double, double* %6, align 8
  ret double %28
}

; Function Attrs: noinline nounwind uwtable
define dso_local double @s(double* %0, i32 %1) #0 {
  %3 = alloca double*, align 8
  %4 = alloca i32, align 4
  %5 = alloca i32, align 4
  %6 = alloca double, align 8
  %7 = alloca double, align 8
  %8 = alloca double, align 8
  store double* %0, double** %3, align 8
  store i32 %1, i32* %4, align 4
  store double 0.000000e+00, double* %6, align 8
  %9 = load double*, double** %3, align 8
  %10 = load i32, i32* %4, align 4
  %11 = call double @aver(double* %9, i32 %10)
  store double %11, double* %7, align 8
  store i32 0, i32* %5, align 4
  br label %12

12:                                               ; preds = %34, %2
  %13 = load i32, i32* %5, align 4
  %14 = load i32, i32* %4, align 4
  %15 = icmp slt i32 %13, %14
  br i1 %15, label %16, label %37

16:                                               ; preds = %12
  %17 = load double*, double** %3, align 8
  %18 = load i32, i32* %5, align 4
  %19 = sext i32 %18 to i64
  %20 = getelementptr inbounds double, double* %17, i64 %19
  %21 = load double, double* %20, align 8
  %22 = load double, double* %7, align 8
  %23 = fsub double %21, %22
  %24 = load double*, double** %3, align 8
  %25 = load i32, i32* %5, align 4
  %26 = sext i32 %25 to i64
  %27 = getelementptr inbounds double, double* %24, i64 %26
  %28 = load double, double* %27, align 8
  %29 = load double, double* %7, align 8
  %30 = fsub double %28, %29
  %31 = fmul double %23, %30
  %32 = load double, double* %6, align 8
  %33 = fadd double %31, %32
  store double %33, double* %6, align 8
  br label %34

34:                                               ; preds = %16
  %35 = load i32, i32* %5, align 4
  %36 = add nsw i32 %35, 1
  store i32 %36, i32* %5, align 4
  br label %12

37:                                               ; preds = %12
  %38 = load double, double* %6, align 8
  %39 = load i32, i32* %4, align 4
  %40 = sitofp i32 %39 to double
  %41 = fdiv double %38, %40
  store double %41, double* %8, align 8
  %42 = load double, double* %8, align 8
  %43 = call double @sqrt(double %42) #3
  ret double %43
}

; Function Attrs: noinline nounwind uwtable
define dso_local void @main() #0 {
  %1 = alloca [100 x double*], align 16
  %2 = alloca i32, align 4
  %3 = alloca i32, align 4
  %4 = alloca i32, align 4
  %5 = alloca i32, align 4
  %6 = call i32 (i8*, ...) @__isoc99_scanf(i8* getelementptr inbounds ([3 x i8], [3 x i8]* @.str, i64 0, i64 0), i32* %2)
  store i32 0, i32* %4, align 4
  br label %7

7:                                                ; preds = %18, %0
  %8 = load i32, i32* %4, align 4
  %9 = load i32, i32* %2, align 4
  %10 = icmp slt i32 %8, %9
  br i1 %10, label %11, label %21

11:                                               ; preds = %7
  %12 = call noalias i8* @malloc(i64 800) #3
  %13 = bitcast i8* %12 to double*
  %14 = getelementptr inbounds [100 x double*], [100 x double*]* %1, i64 0, i64 0
  %15 = load i32, i32* %4, align 4
  %16 = sext i32 %15 to i64
  %17 = getelementptr inbounds double*, double** %14, i64 %16
  store double* %13, double** %17, align 8
  br label %18

18:                                               ; preds = %11
  %19 = load i32, i32* %4, align 4
  %20 = add nsw i32 %19, 1
  store i32 %20, i32* %4, align 4
  br label %7

21:                                               ; preds = %7
  store i32 0, i32* %4, align 4
  br label %22

22:                                               ; preds = %53, %21
  %23 = load i32, i32* %4, align 4
  %24 = load i32, i32* %2, align 4
  %25 = icmp slt i32 %23, %24
  br i1 %25, label %26, label %56

26:                                               ; preds = %22
  %27 = call i32 (i8*, ...) @__isoc99_scanf(i8* getelementptr inbounds ([3 x i8], [3 x i8]* @.str, i64 0, i64 0), i32* %3)
  store i32 0, i32* %5, align 4
  br label %28

28:                                               ; preds = %42, %26
  %29 = load i32, i32* %5, align 4
  %30 = load i32, i32* %3, align 4
  %31 = icmp slt i32 %29, %30
  br i1 %31, label %32, label %45

32:                                               ; preds = %28
  %33 = getelementptr inbounds [100 x double*], [100 x double*]* %1, i64 0, i64 0
  %34 = load i32, i32* %4, align 4
  %35 = sext i32 %34 to i64
  %36 = getelementptr inbounds double*, double** %33, i64 %35
  %37 = load double*, double** %36, align 8
  %38 = load i32, i32* %5, align 4
  %39 = sext i32 %38 to i64
  %40 = getelementptr inbounds double, double* %37, i64 %39
  %41 = call i32 (i8*, ...) @__isoc99_scanf(i8* getelementptr inbounds ([4 x i8], [4 x i8]* @.str.1, i64 0, i64 0), double* %40)
  br label %42

42:                                               ; preds = %32
  %43 = load i32, i32* %5, align 4
  %44 = add nsw i32 %43, 1
  store i32 %44, i32* %5, align 4
  br label %28

45:                                               ; preds = %28
  %46 = load i32, i32* %4, align 4
  %47 = sext i32 %46 to i64
  %48 = getelementptr inbounds [100 x double*], [100 x double*]* %1, i64 0, i64 %47
  %49 = load double*, double** %48, align 8
  %50 = load i32, i32* %3, align 4
  %51 = call double @s(double* %49, i32 %50)
  %52 = call i32 (i8*, ...) @printf(i8* getelementptr inbounds ([7 x i8], [7 x i8]* @.str.2, i64 0, i64 0), double %51)
  br label %53

53:                                               ; preds = %45
  %54 = load i32, i32* %4, align 4
  %55 = add nsw i32 %54, 1
  store i32 %55, i32* %4, align 4
  br label %22

56:                                               ; preds = %22
  ret void
}